target datalayout = "e-m:e-p270:32:32-p271:32:32-p272:64:64-i64:64-i128:128-f80:128-n8:16:32:64-S128"
target triple = "x86_64-pc-linux-gnu"

%struct.PHP_MURMUR3A_CTX = type { i32, i32, i32 }

; Function Attrs: nounwind uwtable
define void @PHP_MURMUR3AFinal(ptr noundef %0, ptr noundef %1) #0 {
  %3 = alloca ptr, align 8
  %4 = alloca ptr, align 8
  store ptr %0, ptr %3, align 8
  store ptr %1, ptr %4, align 8
  %5 = load ptr, ptr %4, align 8
  %6 = getelementptr inbounds %struct.PHP_MURMUR3A_CTX, ptr %5, i32 0, i32 0
  %7 = load i32, ptr %6, align 4
  %8 = load ptr, ptr %4, align 8
  %9 = getelementptr inbounds %struct.PHP_MURMUR3A_CTX, ptr %8, i32 0, i32 1
  %10 = load i32, ptr %9, align 4
  %11 = load ptr, ptr %4, align 8
  %12 = getelementptr inbounds %struct.PHP_MURMUR3A_CTX, ptr %11, i32 0, i32 2
  %13 = load i32, ptr %12, align 4
  %14 = call i32 @PMurHash32_Result(i32 noundef %7, i32 noundef %10, i32 noundef %13)
  %15 = load ptr, ptr %4, align 8
  %16 = getelementptr inbounds %struct.PHP_MURMUR3A_CTX, ptr %15, i32 0, i32 0
  store i32 %14, ptr %16, align 4
  %17 = load ptr, ptr %4, align 8
  %18 = getelementptr inbounds %struct.PHP_MURMUR3A_CTX, ptr %17, i32 0, i32 0
  %19 = load i32, ptr %18, align 4
  %20 = lshr i32 %19, 24
  %21 = and i32 %20, 255
  %22 = trunc i32 %21 to i8
  %23 = load ptr, ptr %3, align 8
  %24 = getelementptr inbounds i8, ptr %23, i64 0
  store i8 %22, ptr %24, align 1
  %25 = load ptr, ptr %4, align 8
  %26 = getelementptr inbounds %struct.PHP_MURMUR3A_CTX, ptr %25, i32 0, i32 0
  %27 = load i32, ptr %26, align 4
  %28 = lshr i32 %27, 16
  %29 = and i32 %28, 255
  %30 = trunc i32 %29 to i8
  %31 = load ptr, ptr %3, align 8
  %32 = getelementptr inbounds i8, ptr %31, i64 1
  store i8 %30, ptr %32, align 1
  %33 = load ptr, ptr %4, align 8
  %34 = getelementptr inbounds %struct.PHP_MURMUR3A_CTX, ptr %33, i32 0, i32 0
  %35 = load i32, ptr %34, align 4
  %36 = lshr i32 %35, 8
  %37 = and i32 %36, 255
  %38 = trunc i32 %37 to i8
  %39 = load ptr, ptr %3, align 8
  %40 = getelementptr inbounds i8, ptr %39, i64 2
  store i8 %38, ptr %40, align 1
  %41 = load ptr, ptr %4, align 8
  %42 = getelementptr inbounds %struct.PHP_MURMUR3A_CTX, ptr %41, i32 0, i32 0
  %43 = load i32, ptr %42, align 4
  %44 = and i32 %43, 255
  %45 = trunc i32 %44 to i8
  %46 = load ptr, ptr %3, align 8
  %47 = getelementptr inbounds i8, ptr %46, i64 3
  store i8 %45, ptr %47, align 1
  ret void
}