; Function Attrs: nounwind uwtable
define void @PHP_MURMUR3AFinal(ptr nocapture noundef writeonly %0, ptr nocapture noundef %1) #0 {
  %3 = load i32, ptr %1, align 4
  %4 = getelementptr inbounds i8, ptr %1, i64 4
  %5 = load i32, ptr %4, align 4
  %6 = getelementptr inbounds i8, ptr %1, i64 8
  %7 = load i32, ptr %6, align 4
  %8 = tail call i32 @PMurHash32_Result(i32 noundef %3, i32 noundef %5, i32 noundef %7) #5
  store i32 %8, ptr %1, align 4
  %9 = lshr i32 %8, 24
  %10 = trunc i32 %9 to i8
  store i8 %10, ptr %0, align 1
  %11 = load i32, ptr %1, align 4
  %12 = lshr i32 %11, 16
  %13 = trunc i32 %12 to i8
  %14 = getelementptr inbounds i8, ptr %0, i64 1
  store i8 %13, ptr %14, align 1
  %15 = load i32, ptr %1, align 4
  %16 = lshr i32 %15, 8
  %17 = trunc i32 %16 to i8
  %18 = getelementptr inbounds i8, ptr %0, i64 2
  store i8 %17, ptr %18, align 1
  %19 = load i32, ptr %1, align 4
  %20 = trunc i32 %19 to i8
  %21 = getelementptr inbounds i8, ptr %0, i64 3
  store i8 %20, ptr %21, align 1
  ret void
}